; Function Attrs: mustprogress uwtable
define void @_ZN3zmq5own_tC2EPNS_5ctx_tEj(ptr noundef nonnull align 8 dereferenceable(1444) %this, ptr noundef %parent_, i32 noundef %tid_) unnamed_addr #0 align 2 personality ptr @__gxx_personality_v0 {
entry:
  tail call void @_ZN3zmq8object_tC2EPNS_5ctx_tEj(ptr noundef nonnull align 8 dereferenceable(20) %this, ptr noundef %parent_, i32 noundef %tid_)
  store ptr getelementptr inbounds ({ [26 x ptr] }, ptr @_ZTVN3zmq5own_tE, i64 0, i32 0, i64 2), ptr %this, align 8
  %options = getelementptr inbounds i8, ptr %this, i64 24
  invoke void @_ZN3zmq9options_tC1Ev(ptr noundef nonnull align 8 dereferenceable(1336) %options)
          to label %invoke.cont unwind label %lpad

invoke.cont:                                      ; preds = %entry
  %_terminating = getelementptr inbounds i8, ptr %this, i64 1360
  store i8 0, ptr %_terminating, align 8
  %_sent_seqnum = getelementptr inbounds i8, ptr %this, i64 1368
  store i32 0, ptr %_sent_seqnum, align 8
  %_processed_seqnum = getelementptr inbounds i8, ptr %this, i64 1376
  %0 = getelementptr inbounds i8, ptr %this, i64 1400
  store i32 0, ptr %0, align 8
  %_M_parent.i.i.i.i.i = getelementptr inbounds i8, ptr %this, i64 1408
  store ptr null, ptr %_M_parent.i.i.i.i.i, align 8
  %_M_left.i.i.i.i.i = getelementptr inbounds i8, ptr %this, i64 1416
  tail call void @llvm.memset.p0.i64(ptr noundef nonnull align 8 dereferenceable(16) %_processed_seqnum, i8 0, i64 16, i1 false)
  store ptr %0, ptr %_M_left.i.i.i.i.i, align 8
  %_M_right.i.i.i.i.i = getelementptr inbounds i8, ptr %this, i64 1424
  store ptr %0, ptr %_M_right.i.i.i.i.i, align 8
  %_M_node_count.i.i.i.i.i = getelementptr inbounds i8, ptr %this, i64 1432
  store i64 0, ptr %_M_node_count.i.i.i.i.i, align 8
  %_term_acks = getelementptr inbounds i8, ptr %this, i64 1440
  store i32 0, ptr %_term_acks, align 8
  ret void

lpad:                                             ; preds = %entry
  %1 = landingpad { ptr, i32 }
          cleanup
  tail call void @_ZN3zmq8object_tD2Ev(ptr noundef nonnull align 8 dereferenceable(20) %this) #16
  resume { ptr, i32 } %1
}